; ModuleID = '55/259.c'
source_filename = "55/259.c"
target datalayout = "e-m:e-p270:32:32-p271:32:32-p272:64:64-i64:64-f80:128-n8:16:32:64-S128"
target triple = "x86_64-pc-linux-gnu"

@.str = private unnamed_addr constant [9 x i8] c"%d %s %d\00", align 1
@.str.1 = private unnamed_addr constant [3 x i8] c"0\0A\00", align 1
@.str.2 = private unnamed_addr constant [3 x i8] c"%c\00", align 1

; Function Attrs: noinline nounwind uwtable
define dso_local i32 @main(i32 %0, i8** %1) #0 {
  %3 = alloca i32, align 4
  %4 = alloca i32, align 4
  %5 = alloca i8**, align 8
  %6 = alloca i32, align 4
  %7 = alloca i32, align 4
  %8 = alloca i32, align 4
  %9 = alloca i32, align 4
  %10 = alloca i32, align 4
  %11 = alloca [20 x i32], align 16
  %12 = alloca [20 x i32], align 16
  %13 = alloca i32, align 4
  %14 = alloca i64, align 8
  %15 = alloca [20 x i8], align 16
  store i32 0, i32* %3, align 4
  store i32 %0, i32* %4, align 4
  store i8** %1, i8*** %5, align 8
  store i32 0, i32* %7, align 4
  store i64 0, i64* %14, align 8
  %16 = call i32 (i8*, ...) @__isoc99_scanf(i8* getelementptr inbounds ([9 x i8], [9 x i8]* @.str, i64 0, i64 0), i32* %10, [20 x i8]* %15, i32* %9)
  %17 = getelementptr inbounds [20 x i8], [20 x i8]* %15, i64 0, i64 0
  %18 = call i64 @strlen(i8* %17) #4
  %19 = trunc i64 %18 to i32
  store i32 %19, i32* %8, align 4
  store i32 0, i32* %6, align 4
  br label %20

20:                                               ; preds = %99, %2
  %21 = load i32, i32* %6, align 4
  %22 = load i32, i32* %8, align 4
  %23 = icmp slt i32 %21, %22
  br i1 %23, label %24, label %102

24:                                               ; preds = %20
  %25 = load i32, i32* %6, align 4
  %26 = sext i32 %25 to i64
  %27 = getelementptr inbounds [20 x i8], [20 x i8]* %15, i64 0, i64 %26
  %28 = load i8, i8* %27, align 1
  %29 = sext i8 %28 to i32
  %30 = icmp sgt i32 %29, 47
  br i1 %30, label %31, label %48

31:                                               ; preds = %24
  %32 = load i32, i32* %6, align 4
  %33 = sext i32 %32 to i64
  %34 = getelementptr inbounds [20 x i8], [20 x i8]* %15, i64 0, i64 %33
  %35 = load i8, i8* %34, align 1
  %36 = sext i8 %35 to i32
  %37 = icmp slt i32 %36, 58
  br i1 %37, label %38, label %48

38:                                               ; preds = %31
  %39 = load i32, i32* %6, align 4
  %40 = sext i32 %39 to i64
  %41 = getelementptr inbounds [20 x i8], [20 x i8]* %15, i64 0, i64 %40
  %42 = load i8, i8* %41, align 1
  %43 = sext i8 %42 to i32
  %44 = sub nsw i32 %43, 48
  %45 = load i32, i32* %6, align 4
  %46 = sext i32 %45 to i64
  %47 = getelementptr inbounds [20 x i32], [20 x i32]* %11, i64 0, i64 %46
  store i32 %44, i32* %47, align 4
  br label %98

48:                                               ; preds = %31, %24
  %49 = load i32, i32* %6, align 4
  %50 = sext i32 %49 to i64
  %51 = getelementptr inbounds [20 x i8], [20 x i8]* %15, i64 0, i64 %50
  %52 = load i8, i8* %51, align 1
  %53 = sext i8 %52 to i32
  %54 = icmp sgt i32 %53, 64
  br i1 %54, label %55, label %72

55:                                               ; preds = %48
  %56 = load i32, i32* %6, align 4
  %57 = sext i32 %56 to i64
  %58 = getelementptr inbounds [20 x i8], [20 x i8]* %15, i64 0, i64 %57
  %59 = load i8, i8* %58, align 1
  %60 = sext i8 %59 to i32
  %61 = icmp slt i32 %60, 90
  br i1 %61, label %62, label %72

62:                                               ; preds = %55
  %63 = load i32, i32* %6, align 4
  %64 = sext i32 %63 to i64
  %65 = getelementptr inbounds [20 x i8], [20 x i8]* %15, i64 0, i64 %64
  %66 = load i8, i8* %65, align 1
  %67 = sext i8 %66 to i32
  %68 = sub nsw i32 %67, 55
  %69 = load i32, i32* %6, align 4
  %70 = sext i32 %69 to i64
  %71 = getelementptr inbounds [20 x i32], [20 x i32]* %11, i64 0, i64 %70
  store i32 %68, i32* %71, align 4
  br label %97

72:                                               ; preds = %55, %48
  %73 = load i32, i32* %6, align 4
  %74 = sext i32 %73 to i64
  %75 = getelementptr inbounds [20 x i8], [20 x i8]* %15, i64 0, i64 %74
  %76 = load i8, i8* %75, align 1
  %77 = sext i8 %76 to i32
  %78 = icmp sgt i32 %77, 96
  br i1 %78, label %79, label %96

79:                                               ; preds = %72
  %80 = load i32, i32* %6, align 4
  %81 = sext i32 %80 to i64
  %82 = getelementptr inbounds [20 x i8], [20 x i8]* %15, i64 0, i64 %81
  %83 = load i8, i8* %82, align 1
  %84 = sext i8 %83 to i32
  %85 = icmp slt i32 %84, 123
  br i1 %85, label %86, label %96

86:                                               ; preds = %79
  %87 = load i32, i32* %6, align 4
  %88 = sext i32 %87 to i64
  %89 = getelementptr inbounds [20 x i8], [20 x i8]* %15, i64 0, i64 %88
  %90 = load i8, i8* %89, align 1
  %91 = sext i8 %90 to i32
  %92 = sub nsw i32 %91, 87
  %93 = load i32, i32* %6, align 4
  %94 = sext i32 %93 to i64
  %95 = getelementptr inbounds [20 x i32], [20 x i32]* %11, i64 0, i64 %94
  store i32 %92, i32* %95, align 4
  br label %96

96:                                               ; preds = %86, %79, %72
  br label %97

97:                                               ; preds = %96, %62
  br label %98

98:                                               ; preds = %97, %38
  br label %99

99:                                               ; preds = %98
  %100 = load i32, i32* %6, align 4
  %101 = add nsw i32 %100, 1
  store i32 %101, i32* %6, align 4
  br label %20

102:                                              ; preds = %20
  store i32 0, i32* %6, align 4
  br label %103

103:                                              ; preds = %126, %102
  %104 = load i32, i32* %6, align 4
  %105 = load i32, i32* %8, align 4
  %106 = icmp slt i32 %104, %105
  br i1 %106, label %107, label %129

107:                                              ; preds = %103
  %108 = load i64, i64* %14, align 8
  %109 = sitofp i64 %108 to double
  %110 = load i32, i32* %6, align 4
  %111 = sext i32 %110 to i64
  %112 = getelementptr inbounds [20 x i32], [20 x i32]* %11, i64 0, i64 %111
  %113 = load i32, i32* %112, align 4
  %114 = sitofp i32 %113 to double
  %115 = load i32, i32* %10, align 4
  %116 = sitofp i32 %115 to double
  %117 = load i32, i32* %8, align 4
  %118 = load i32, i32* %6, align 4
  %119 = sub nsw i32 %117, %118
  %120 = sub nsw i32 %119, 1
  %121 = sitofp i32 %120 to double
  %122 = call double @pow(double %116, double %121) #5
  %123 = fmul double %114, %122
  %124 = fadd double %109, %123
  %125 = fptosi double %124 to i64
  store i64 %125, i64* %14, align 8
  br label %126

126:                                              ; preds = %107
  %127 = load i32, i32* %6, align 4
  %128 = add nsw i32 %127, 1
  store i32 %128, i32* %6, align 4
  br label %103

129:                                              ; preds = %103
  %130 = load i64, i64* %14, align 8
  %131 = trunc i64 %130 to i32
  store i32 %131, i32* %13, align 4
  %132 = load i64, i64* %14, align 8
  %133 = icmp eq i64 %132, 0
  br i1 %133, label %134, label %136

134:                                              ; preds = %129
  %135 = call i32 (i8*, ...) @printf(i8* getelementptr inbounds ([3 x i8], [3 x i8]* @.str.1, i64 0, i64 0))
  br label %213

136:                                              ; preds = %129
  br label %137

137:                                              ; preds = %144, %136
  %138 = load i64, i64* %14, align 8
  %139 = load i32, i32* %9, align 4
  %140 = sext i32 %139 to i64
  %141 = sdiv i64 %138, %140
  store i64 %141, i64* %14, align 8
  %142 = load i32, i32* %7, align 4
  %143 = add nsw i32 %142, 1
  store i32 %143, i32* %7, align 4
  br label %144

144:                                              ; preds = %137
  %145 = load i64, i64* %14, align 8
  %146 = load i32, i32* %9, align 4
  %147 = sext i32 %146 to i64
  %148 = icmp sge i64 %145, %147
  br i1 %148, label %137, label %149

149:                                              ; preds = %144
  store i32 0, i32* %6, align 4
  br label %150

150:                                              ; preds = %195, %149
  %151 = load i32, i32* %6, align 4
  %152 = load i32, i32* %7, align 4
  %153 = icmp sle i32 %151, %152
  br i1 %153, label %154, label %198

154:                                              ; preds = %150
  %155 = load i32, i32* %13, align 4
  %156 = load i32, i32* %9, align 4
  %157 = srem i32 %155, %156
  %158 = load i32, i32* %6, align 4
  %159 = sext i32 %158 to i64
  %160 = getelementptr inbounds [20 x i32], [20 x i32]* %12, i64 0, i64 %159
  store i32 %157, i32* %160, align 4
  %161 = load i32, i32* %13, align 4
  %162 = load i32, i32* %9, align 4
  %163 = sdiv i32 %161, %162
  store i32 %163, i32* %13, align 4
  %164 = load i32, i32* %6, align 4
  %165 = sext i32 %164 to i64
  %166 = getelementptr inbounds [20 x i32], [20 x i32]* %12, i64 0, i64 %165
  %167 = load i32, i32* %166, align 4
  %168 = icmp slt i32 %167, 10
  br i1 %168, label %169, label %178

169:                                              ; preds = %154
  %170 = load i32, i32* %6, align 4
  %171 = sext i32 %170 to i64
  %172 = getelementptr inbounds [20 x i32], [20 x i32]* %12, i64 0, i64 %171
  %173 = load i32, i32* %172, align 4
  %174 = add nsw i32 %173, 48
  %175 = load i32, i32* %6, align 4
  %176 = sext i32 %175 to i64
  %177 = getelementptr inbounds [20 x i32], [20 x i32]* %12, i64 0, i64 %176
  store i32 %174, i32* %177, align 4
  br label %194

178:                                              ; preds = %154
  %179 = load i32, i32* %6, align 4
  %180 = sext i32 %179 to i64
  %181 = getelementptr inbounds [20 x i32], [20 x i32]* %12, i64 0, i64 %180
  %182 = load i32, i32* %181, align 4
  %183 = icmp sge i32 %182, 10
  br i1 %183, label %184, label %193

184:                                              ; preds = %178
  %185 = load i32, i32* %6, align 4
  %186 = sext i32 %185 to i64
  %187 = getelementptr inbounds [20 x i32], [20 x i32]* %12, i64 0, i64 %186
  %188 = load i32, i32* %187, align 4
  %189 = add nsw i32 %188, 55
  %190 = load i32, i32* %6, align 4
  %191 = sext i32 %190 to i64
  %192 = getelementptr inbounds [20 x i32], [20 x i32]* %12, i64 0, i64 %191
  store i32 %189, i32* %192, align 4
  br label %193

193:                                              ; preds = %184, %178
  br label %194

194:                                              ; preds = %193, %169
  br label %195

195:                                              ; preds = %194
  %196 = load i32, i32* %6, align 4
  %197 = add nsw i32 %196, 1
  store i32 %197, i32* %6, align 4
  br label %150

198:                                              ; preds = %150
  %199 = load i32, i32* %7, align 4
  store i32 %199, i32* %6, align 4
  br label %200

200:                                              ; preds = %209, %198
  %201 = load i32, i32* %6, align 4
  %202 = icmp sge i32 %201, 0
  br i1 %202, label %203, label %212

203:                                              ; preds = %200
  %204 = load i32, i32* %6, align 4
  %205 = sext i32 %204 to i64
  %206 = getelementptr inbounds [20 x i32], [20 x i32]* %12, i64 0, i64 %205
  %207 = load i32, i32* %206, align 4
  %208 = call i32 (i8*, ...) @printf(i8* getelementptr inbounds ([3 x i8], [3 x i8]* @.str.2, i64 0, i64 0), i32 %207)
  br label %209

209:                                              ; preds = %203
  %210 = load i32, i32* %6, align 4
  %211 = add nsw i32 %210, -1
  store i32 %211, i32* %6, align 4
  br label %200

212:                                              ; preds = %200
  br label %213

213:                                              ; preds = %212, %134
  ret i32 0
}

declare dso_local i32 @__isoc99_scanf(i8*, ...) #1

; Function Attrs: nounwind readonly
declare dso_local i64 @strlen(i8*) #2

; Function Attrs: nounwind
declare dso_local double @pow(double, double) #3

declare dso_local i32 @printf(i8*, ...) #1


!llvm.module.flags = !{!0}
!llvm.ident = !{!1}

!0 = !{i32 1, !"wchar_size", i32 4}
!1 = !{!"clang version 10.0.0-4ubuntu1 "}
